target datalayout = "e-m:e-p270:32:32-p271:32:32-p272:64:64-i64:64-i128:128-f80:128-n8:16:32:64-S128"
target triple = "x86_64-pc-linux-gnu"

%"class.grpc_core::EndpointAddresses" = type { %"class.std::vector", %"class.grpc_core::ChannelArgs" }
%"class.std::vector" = type { %"struct.std::_Vector_base" }
%"struct.std::_Vector_base" = type { %"struct.std::_Vector_base<grpc_resolved_address, std::allocator<grpc_resolved_address>>::_Vector_impl" }
%"struct.std::_Vector_base<grpc_resolved_address, std::allocator<grpc_resolved_address>>::_Vector_impl" = type { %"struct.std::_Vector_base<grpc_resolved_address, std::allocator<grpc_resolved_address>>::_Vector_impl_data" }
%"struct.std::_Vector_base<grpc_resolved_address, std::allocator<grpc_resolved_address>>::_Vector_impl_data" = type { ptr, ptr, ptr }
%"class.grpc_core::ChannelArgs" = type { %"class.grpc_core::AVL" }
%"class.grpc_core::AVL" = type { %"class.grpc_core::RefCountedPtr" }
%"class.grpc_core::RefCountedPtr" = type { ptr }
%struct.grpc_resolved_address = type { [128 x i8], i32 }

; Function Attrs: mustprogress uwtable
define linkonce_odr noundef i32 @_ZN9grpc_core12QsortCompareINS_11ChannelArgsEEEiRKT_S4_(ptr noundef nonnull align 8 dereferenceable(8) %0, ptr noundef nonnull align 8 dereferenceable(8) %1) #4 comdat {
  %3 = alloca i32, align 4
  %4 = alloca ptr, align 8
  %5 = alloca ptr, align 8
  store ptr %0, ptr %4, align 8, !tbaa !10
  store ptr %1, ptr %5, align 8, !tbaa !10
  %6 = load ptr, ptr %4, align 8, !tbaa !10
  %7 = load ptr, ptr %5, align 8, !tbaa !10
  %8 = call noundef zeroext i1 @_ZNK9grpc_core11ChannelArgsltERKS0_(ptr noundef nonnull align 8 dereferenceable(8) %6, ptr noundef nonnull align 8 dereferenceable(8) %7)
  br i1 %8, label %9, label %10

9:                                                ; preds = %2
  store i32 -1, ptr %3, align 4
  br label %16

10:                                               ; preds = %2
  %11 = load ptr, ptr %5, align 8, !tbaa !10
  %12 = load ptr, ptr %4, align 8, !tbaa !10
  %13 = call noundef zeroext i1 @_ZNK9grpc_core11ChannelArgsltERKS0_(ptr noundef nonnull align 8 dereferenceable(8) %11, ptr noundef nonnull align 8 dereferenceable(8) %12)
  br i1 %13, label %14, label %15

14:                                               ; preds = %10
  store i32 1, ptr %3, align 4
  br label %16

15:                                               ; preds = %10
  store i32 0, ptr %3, align 4
  br label %16

16:                                               ; preds = %15, %14, %9
  %17 = load i32, ptr %3, align 4
  ret i32 %17
}

; Function Attrs: mustprogress nounwind uwtable
define linkonce_odr noundef nonnull align 4 dereferenceable(132) ptr @_ZNKSt6vectorI21grpc_resolved_addressSaIS0_EEixEm(ptr noundef nonnull align 8 dereferenceable(24) %0, i64 noundef %1) #6 comdat align 2 {
  %3 = alloca ptr, align 8
  %4 = alloca i64, align 8
  store ptr %0, ptr %3, align 8, !tbaa !14
  store i64 %1, ptr %4, align 8, !tbaa !16
  %5 = load ptr, ptr %3, align 8
  %6 = getelementptr inbounds nuw %"struct.std::_Vector_base", ptr %5, i32 0, i32 0
  %7 = getelementptr inbounds nuw %"struct.std::_Vector_base<grpc_resolved_address, std::allocator<grpc_resolved_address>>::_Vector_impl_data", ptr %6, i32 0, i32 0
  %8 = load ptr, ptr %7, align 8, !tbaa !20
  %9 = load i64, ptr %4, align 8, !tbaa !16
  %10 = getelementptr inbounds nuw %struct.grpc_resolved_address, ptr %8, i64 %9
  ret ptr %10
}

; Function Attrs: mustprogress nounwind uwtable
define linkonce_odr noundef i64 @_ZNKSt6vectorI21grpc_resolved_addressSaIS0_EE4sizeEv(ptr noundef nonnull align 8 dereferenceable(24) %0) #6 comdat align 2 {
  %2 = alloca ptr, align 8
  store ptr %0, ptr %2, align 8, !tbaa !14
  %3 = load ptr, ptr %2, align 8
  %4 = getelementptr inbounds nuw %"struct.std::_Vector_base", ptr %3, i32 0, i32 0
  %5 = getelementptr inbounds nuw %"struct.std::_Vector_base<grpc_resolved_address, std::allocator<grpc_resolved_address>>::_Vector_impl_data", ptr %4, i32 0, i32 1
  %6 = load ptr, ptr %5, align 8, !tbaa !22
  %7 = getelementptr inbounds nuw %"struct.std::_Vector_base", ptr %3, i32 0, i32 0
  %8 = getelementptr inbounds nuw %"struct.std::_Vector_base<grpc_resolved_address, std::allocator<grpc_resolved_address>>::_Vector_impl_data", ptr %7, i32 0, i32 0
  %9 = load ptr, ptr %8, align 8, !tbaa !20
  %10 = ptrtoint ptr %6 to i64
  %11 = ptrtoint ptr %9 to i64
  %12 = sub i64 %10, %11
  %13 = sdiv exact i64 %12, 132
  ret i64 %13
}

; Function Attrs: mustprogress uwtable
define noundef i32 @_ZNK9grpc_core17EndpointAddresses3CmpERKS0_(ptr noundef nonnull align 8 dereferenceable(32) %0, ptr noundef nonnull align 8 dereferenceable(32) %1) #4 align 2 {
  %3 = alloca i32, align 4
  %4 = alloca ptr, align 8
  %5 = alloca ptr, align 8
  %6 = alloca i64, align 8
  %7 = alloca i32, align 4
  %8 = alloca i32, align 4
  store ptr %0, ptr %4, align 8, !tbaa !3
  store ptr %1, ptr %5, align 8, !tbaa !3
  %9 = load ptr, ptr %4, align 8
  call void @llvm.lifetime.start.p0(i64 8, ptr %6) #3
  store i64 0, ptr %6, align 8, !tbaa !16
  br label %10

10:                                               ; preds = %78, %2
  %11 = load i64, ptr %6, align 8, !tbaa !16
  %12 = getelementptr inbounds nuw %"class.grpc_core::EndpointAddresses", ptr %9, i32 0, i32 0
  %13 = call noundef i64 @_ZNKSt6vectorI21grpc_resolved_addressSaIS0_EE4sizeEv(ptr noundef nonnull align 8 dereferenceable(24) %12) #3
  %14 = icmp ult i64 %11, %13
  br i1 %14, label %16, label %15

15:                                               ; preds = %10
  store i32 2, ptr %7, align 4
  br label %81

16:                                               ; preds = %10
  %17 = load ptr, ptr %5, align 8, !tbaa !3
  %18 = getelementptr inbounds nuw %"class.grpc_core::EndpointAddresses", ptr %17, i32 0, i32 0
  %19 = call noundef i64 @_ZNKSt6vectorI21grpc_resolved_addressSaIS0_EE4sizeEv(ptr noundef nonnull align 8 dereferenceable(24) %18) #3
  %20 = load i64, ptr %6, align 8, !tbaa !16
  %21 = icmp eq i64 %19, %20
  br i1 %21, label %22, label %23

22:                                               ; preds = %16
  store i32 1, ptr %3, align 4
  store i32 1, ptr %7, align 4
  br label %81

23:                                               ; preds = %16
  %24 = getelementptr inbounds nuw %"class.grpc_core::EndpointAddresses", ptr %9, i32 0, i32 0
  %25 = load i64, ptr %6, align 8, !tbaa !16
  %26 = call noundef nonnull align 4 dereferenceable(132) ptr @_ZNKSt6vectorI21grpc_resolved_addressSaIS0_EEixEm(ptr noundef nonnull align 8 dereferenceable(24) %24, i64 noundef %25) #3
  %27 = getelementptr inbounds nuw %struct.grpc_resolved_address, ptr %26, i32 0, i32 1
  %28 = load i32, ptr %27, align 4, !tbaa !37
  %29 = load ptr, ptr %5, align 8, !tbaa !3
  %30 = getelementptr inbounds nuw %"class.grpc_core::EndpointAddresses", ptr %29, i32 0, i32 0
  %31 = load i64, ptr %6, align 8, !tbaa !16
  %32 = call noundef nonnull align 4 dereferenceable(132) ptr @_ZNKSt6vectorI21grpc_resolved_addressSaIS0_EEixEm(ptr noundef nonnull align 8 dereferenceable(24) %30, i64 noundef %31) #3
  %33 = getelementptr inbounds nuw %struct.grpc_resolved_address, ptr %32, i32 0, i32 1
  %34 = load i32, ptr %33, align 4, !tbaa !37
  %35 = icmp ugt i32 %28, %34
  br i1 %35, label %36, label %37

36:                                               ; preds = %23
  store i32 1, ptr %3, align 4
  store i32 1, ptr %7, align 4
  br label %81

37:                                               ; preds = %23
  %38 = getelementptr inbounds nuw %"class.grpc_core::EndpointAddresses", ptr %9, i32 0, i32 0
  %39 = load i64, ptr %6, align 8, !tbaa !16
  %40 = call noundef nonnull align 4 dereferenceable(132) ptr @_ZNKSt6vectorI21grpc_resolved_addressSaIS0_EEixEm(ptr noundef nonnull align 8 dereferenceable(24) %38, i64 noundef %39) #3
  %41 = getelementptr inbounds nuw %struct.grpc_resolved_address, ptr %40, i32 0, i32 1
  %42 = load i32, ptr %41, align 4, !tbaa !37
  %43 = load ptr, ptr %5, align 8, !tbaa !3
  %44 = getelementptr inbounds nuw %"class.grpc_core::EndpointAddresses", ptr %43, i32 0, i32 0
  %45 = load i64, ptr %6, align 8, !tbaa !16
  %46 = call noundef nonnull align 4 dereferenceable(132) ptr @_ZNKSt6vectorI21grpc_resolved_addressSaIS0_EEixEm(ptr noundef nonnull align 8 dereferenceable(24) %44, i64 noundef %45) #3
  %47 = getelementptr inbounds nuw %struct.grpc_resolved_address, ptr %46, i32 0, i32 1
  %48 = load i32, ptr %47, align 4, !tbaa !37
  %49 = icmp ult i32 %42, %48
  br i1 %49, label %50, label %51

50:                                               ; preds = %37
  store i32 -1, ptr %3, align 4
  store i32 1, ptr %7, align 4
  br label %81

51:                                               ; preds = %37
  call void @llvm.lifetime.start.p0(i64 4, ptr %8) #3
  %52 = getelementptr inbounds nuw %"class.grpc_core::EndpointAddresses", ptr %9, i32 0, i32 0
  %53 = load i64, ptr %6, align 8, !tbaa !16
  %54 = call noundef nonnull align 4 dereferenceable(132) ptr @_ZNKSt6vectorI21grpc_resolved_addressSaIS0_EEixEm(ptr noundef nonnull align 8 dereferenceable(24) %52, i64 noundef %53) #3
  %55 = getelementptr inbounds nuw %struct.grpc_resolved_address, ptr %54, i32 0, i32 0
  %56 = getelementptr inbounds [128 x i8], ptr %55, i64 0, i64 0
  %57 = load ptr, ptr %5, align 8, !tbaa !3
  %58 = getelementptr inbounds nuw %"class.grpc_core::EndpointAddresses", ptr %57, i32 0, i32 0
  %59 = load i64, ptr %6, align 8, !tbaa !16
  %60 = call noundef nonnull align 4 dereferenceable(132) ptr @_ZNKSt6vectorI21grpc_resolved_addressSaIS0_EEixEm(ptr noundef nonnull align 8 dereferenceable(24) %58, i64 noundef %59) #3
  %61 = getelementptr inbounds nuw %struct.grpc_resolved_address, ptr %60, i32 0, i32 0
  %62 = getelementptr inbounds [128 x i8], ptr %61, i64 0, i64 0
  %63 = getelementptr inbounds nuw %"class.grpc_core::EndpointAddresses", ptr %9, i32 0, i32 0
  %64 = load i64, ptr %6, align 8, !tbaa !16
  %65 = call noundef nonnull align 4 dereferenceable(132) ptr @_ZNKSt6vectorI21grpc_resolved_addressSaIS0_EEixEm(ptr noundef nonnull align 8 dereferenceable(24) %63, i64 noundef %64) #3
  %66 = getelementptr inbounds nuw %struct.grpc_resolved_address, ptr %65, i32 0, i32 1
  %67 = load i32, ptr %66, align 4, !tbaa !37
  %68 = zext i32 %67 to i64
  %69 = call i32 @memcmp(ptr noundef %56, ptr noundef %62, i64 noundef %68) #21
  store i32 %69, ptr %8, align 4, !tbaa !40
  %70 = load i32, ptr %8, align 4, !tbaa !40
  %71 = icmp ne i32 %70, 0
  br i1 %71, label %72, label %74

72:                                               ; preds = %51
  %73 = load i32, ptr %8, align 4, !tbaa !40
  store i32 %73, ptr %3, align 4
  store i32 1, ptr %7, align 4
  br label %75

74:                                               ; preds = %51
  store i32 0, ptr %7, align 4
  br label %75

75:                                               ; preds = %74, %72
  call void @llvm.lifetime.end.p0(i64 4, ptr %8) #3
  %76 = load i32, ptr %7, align 4
  switch i32 %76, label %81 [
    i32 0, label %77
  ]

77:                                               ; preds = %75
  br label %78

78:                                               ; preds = %77
  %79 = load i64, ptr %6, align 8, !tbaa !16
  %80 = add i64 %79, 1
  store i64 %80, ptr %6, align 8, !tbaa !16
  br label %10, !llvm.loop !41

81:                                               ; preds = %75, %50, %36, %22, %15
  call void @llvm.lifetime.end.p0(i64 8, ptr %6) #3
  %82 = load i32, ptr %7, align 4
  switch i32 %82, label %98 [
    i32 2, label %83
    i32 1, label %96
  ]

83:                                               ; preds = %81
  %84 = load ptr, ptr %5, align 8, !tbaa !3
  %85 = getelementptr inbounds nuw %"class.grpc_core::EndpointAddresses", ptr %84, i32 0, i32 0
  %86 = call noundef i64 @_ZNKSt6vectorI21grpc_resolved_addressSaIS0_EE4sizeEv(ptr noundef nonnull align 8 dereferenceable(24) %85) #3
  %87 = getelementptr inbounds nuw %"class.grpc_core::EndpointAddresses", ptr %9, i32 0, i32 0
  %88 = call noundef i64 @_ZNKSt6vectorI21grpc_resolved_addressSaIS0_EE4sizeEv(ptr noundef nonnull align 8 dereferenceable(24) %87) #3
  %89 = icmp ugt i64 %86, %88
  br i1 %89, label %90, label %91

90:                                               ; preds = %83
  store i32 -1, ptr %3, align 4
  br label %96

91:                                               ; preds = %83
  %92 = getelementptr inbounds nuw %"class.grpc_core::EndpointAddresses", ptr %9, i32 0, i32 1
  %93 = load ptr, ptr %5, align 8, !tbaa !3
  %94 = getelementptr inbounds nuw %"class.grpc_core::EndpointAddresses", ptr %93, i32 0, i32 1
  %95 = call noundef i32 @_ZN9grpc_core12QsortCompareINS_11ChannelArgsEEEiRKT_S4_(ptr noundef nonnull align 8 dereferenceable(8) %92, ptr noundef nonnull align 8 dereferenceable(8) %94)
  store i32 %95, ptr %3, align 4
  br label %96

96:                                               ; preds = %91, %90, %81
  %97 = load i32, ptr %3, align 4
  ret i32 %97

98:                                               ; preds = %81
  unreachable
}